; ModuleID = 'source-C-CXX/59/189.c'
source_filename = "source-C-CXX/59/189.c"
target datalayout = "e-m:e-p270:32:32-p271:32:32-p272:64:64-i64:64-f80:128-n8:16:32:64-S128"
target triple = "x86_64-pc-linux-gnu"

@.str = private unnamed_addr constant [3 x i8] c"%d\00", align 1
@.str.1 = private unnamed_addr constant [7 x i8] c"%d %d\0A\00", align 1
@.str.2 = private unnamed_addr constant [6 x i8] c"empty\00", align 1

; Function Attrs: nofree nounwind sspstrong uwtable
define dso_local void @main() local_unnamed_addr #0 {
  %1 = alloca i32, align 4
  %2 = alloca [3000 x i32], align 16
  %3 = bitcast i32* %1 to i8*
  call void @llvm.lifetime.start.p0i8(i64 4, i8* nonnull %3) #4
  %4 = bitcast [3000 x i32]* %2 to i8*
  call void @llvm.lifetime.start.p0i8(i64 12000, i8* nonnull %4) #4
  %5 = call i32 (i8*, ...) @__isoc99_scanf(i8* getelementptr inbounds ([3 x i8], [3 x i8]* @.str, i64 0, i64 0), i32* nonnull %1)
  %6 = load i32, i32* %1, align 4, !tbaa !5
  %7 = icmp slt i32 %6, 3
  br i1 %7, label %50, label %8

8:                                                ; preds = %0, %31
  %9 = phi i32 [ %32, %31 ], [ 1, %0 ]
  %10 = phi i32 [ %33, %31 ], [ 3, %0 ]
  %11 = lshr i32 %10, 1
  %12 = call i32 @llvm.umax.i32(i32 %11, i32 2)
  %13 = icmp ult i32 %10, 4
  br i1 %13, label %27, label %23

14:                                               ; preds = %31
  %15 = icmp sgt i32 %32, 1
  br i1 %15, label %16, label %47

16:                                               ; preds = %14
  %17 = zext i32 %32 to i64
  %18 = getelementptr inbounds [3000 x i32], [3000 x i32]* %2, i64 0, i64 1
  %19 = load i32, i32* %18, align 4, !tbaa !5
  br label %35

20:                                               ; preds = %23
  %21 = add nuw nsw i32 %24, 1
  %22 = icmp eq i32 %24, %12
  br i1 %22, label %27, label %23, !llvm.loop !9

23:                                               ; preds = %8, %20
  %24 = phi i32 [ %21, %20 ], [ 2, %8 ]
  %25 = urem i32 %10, %24
  %26 = icmp eq i32 %25, 0
  br i1 %26, label %31, label %20

27:                                               ; preds = %20, %8
  %28 = sext i32 %9 to i64
  %29 = getelementptr inbounds [3000 x i32], [3000 x i32]* %2, i64 0, i64 %28
  store i32 %10, i32* %29, align 4, !tbaa !5
  %30 = add nsw i32 %9, 1
  br label %31

31:                                               ; preds = %23, %27
  %32 = phi i32 [ %30, %27 ], [ %9, %23 ]
  %33 = add nuw i32 %10, 1
  %34 = icmp eq i32 %10, %6
  br i1 %34, label %14, label %8, !llvm.loop !11

35:                                               ; preds = %16, %45
  %36 = phi i32 [ %19, %16 ], [ %40, %45 ]
  %37 = phi i64 [ 1, %16 ], [ %38, %45 ]
  %38 = add nuw nsw i64 %37, 1
  %39 = getelementptr inbounds [3000 x i32], [3000 x i32]* %2, i64 0, i64 %38
  %40 = load i32, i32* %39, align 4, !tbaa !5
  %41 = sub nsw i32 %40, %36
  %42 = icmp eq i32 %41, 2
  br i1 %42, label %43, label %45

43:                                               ; preds = %35
  %44 = call i32 (i8*, ...) @printf(i8* nonnull dereferenceable(1) getelementptr inbounds ([7 x i8], [7 x i8]* @.str.1, i64 0, i64 0), i32 %36, i32 %40)
  br label %45

45:                                               ; preds = %35, %43
  %46 = icmp eq i64 %38, %17
  br i1 %46, label %47, label %35, !llvm.loop !12

47:                                               ; preds = %45, %14
  %48 = add i32 %32, -1
  %49 = icmp ult i32 %48, 2
  br i1 %49, label %50, label %52

50:                                               ; preds = %0, %47
  %51 = call i32 (i8*, ...) @printf(i8* nonnull dereferenceable(1) getelementptr inbounds ([6 x i8], [6 x i8]* @.str.2, i64 0, i64 0))
  br label %52

52:                                               ; preds = %47, %50
  call void @llvm.lifetime.end.p0i8(i64 12000, i8* nonnull %4) #4
  call void @llvm.lifetime.end.p0i8(i64 4, i8* nonnull %3) #4
  ret void
}

; Function Attrs: argmemonly mustprogress nofree nosync nounwind willreturn
declare void @llvm.lifetime.start.p0i8(i64 immarg, i8* nocapture) #1

; Function Attrs: nofree nounwind
declare noundef i32 @__isoc99_scanf(i8* nocapture noundef readonly, ...) local_unnamed_addr #2

; Function Attrs: nofree nounwind
declare noundef i32 @printf(i8* nocapture noundef readonly, ...) local_unnamed_addr #2

; Function Attrs: argmemonly mustprogress nofree nosync nounwind willreturn
declare void @llvm.lifetime.end.p0i8(i64 immarg, i8* nocapture) #1

; Function Attrs: nofree nosync nounwind readnone speculatable willreturn
declare i32 @llvm.umax.i32(i32, i32) #3


!llvm.module.flags = !{!0, !1, !2, !3}
!llvm.ident = !{!4}

!0 = !{i32 1, !"wchar_size", i32 4}
!1 = !{i32 7, !"PIC Level", i32 2}
!2 = !{i32 7, !"PIE Level", i32 2}
!3 = !{i32 7, !"uwtable", i32 1}
!4 = !{!"clang version 13.0.0"}
!5 = !{!6, !6, i64 0}
!6 = !{!"int", !7, i64 0}
!7 = !{!"omnipotent char", !8, i64 0}
!8 = !{!"Simple C/C++ TBAA"}
!9 = distinct !{!9, !10}
!10 = !{!"llvm.loop.mustprogress"}
!11 = distinct !{!11, !10}
!12 = distinct !{!12, !10}
